target datalayout = "e-m:e-p270:32:32-p271:32:32-p272:64:64-i64:64-i128:128-f80:128-n8:16:32:64-S128"
target triple = "x86_64-pc-linux-gnu"

%struct.Gia_Man_t_ = type { ptr, ptr, i32, i32, i32, i32, ptr, ptr, i32, i32, i32, ptr, ptr, %struct.Vec_Int_t_, %struct.Vec_Int_t_, i32, i32, i32, %struct.Vec_Int_t_, ptr, ptr, ptr, i32, i32, i32, i32, ptr, ptr, ptr, ptr, ptr, i32, i32, ptr, i32, ptr, ptr, ptr, ptr, ptr, ptr, ptr, ptr, ptr, ptr, ptr, ptr, ptr, ptr, ptr, ptr, ptr, ptr, %struct.Vec_Int_t_, %struct.Vec_Int_t_, ptr, ptr, ptr, ptr, ptr, ptr, ptr, ptr, ptr, ptr, ptr, ptr, ptr, ptr, ptr, ptr, ptr, ptr, ptr, ptr, ptr, i32, float, float, ptr, ptr, i32, ptr, ptr, ptr, ptr, ptr, ptr, ptr, ptr, ptr, ptr, ptr, ptr, ptr, ptr, ptr, i64, i64, ptr, ptr, i32, i32, i32, i32, i32, i32, i32, i32, i32, i32, i32, i32, ptr, ptr, ptr, ptr, ptr, ptr, ptr, ptr, i32, i32, i32, ptr, i32, i32, ptr, ptr, ptr, ptr, ptr, ptr, i32, i32, ptr, %struct.Vec_Int_t_, %struct.Vec_Int_t_, %struct.Vec_Int_t_, ptr, ptr, ptr }
%struct.Vec_Int_t_ = type { i32, i32, ptr }

@.str.4 = private unnamed_addr constant [1 x i8] zeroinitializer, align 1
@.str.7 = private unnamed_addr constant [4 x i8] c"&ps\00", align 1
@.str.37 = private unnamed_addr constant [71 x i8] c"&st; &if -C %d;       &save; &st; &syn2; &if -C %d;       &save; &load\00", align 1
@.str.38 = private unnamed_addr constant [71 x i8] c"&st; &if -C %d -K %d; &save; &st; &syn2; &if -C %d -K %d; &save; &load\00", align 1
@.str.39 = private unnamed_addr constant [60 x i8] c"&st; &if -%s -K 6; &dch -f; &if -C %d;       %s&save; &load\00", align 1
@.str.40 = private unnamed_addr constant [2 x i8] c"y\00", align 1
@.str.41 = private unnamed_addr constant [2 x i8] c"g\00", align 1
@.str.42 = private unnamed_addr constant [7 x i8] c"&mfs; \00", align 1
@.str.43 = private unnamed_addr constant [60 x i8] c"&st; &if -%s -K 6; &dch -f; &if -C %d -K %d; %s&save; &load\00", align 1
@.str.44 = private unnamed_addr constant [60 x i8] c"&st; &if -%s -K 6; &synch2; &if -C %d;       %s&save; &load\00", align 1
@.str.45 = private unnamed_addr constant [60 x i8] c"&st; &if -%s -K 6; &synch2; &if -C %d -K %d; %s&save; &load\00", align 1
@.str.46 = private unnamed_addr constant [36 x i8] c"Trying simple synthesis with %s...\0A\00", align 1
@.str.47 = private unnamed_addr constant [4 x i8] c"LMS\00", align 1
@.str.48 = private unnamed_addr constant [14 x i8] c"SOP balancing\00", align 1
@.str.49 = private unnamed_addr constant [28 x i8] c"Trying medium synthesis...\0A\00", align 1
@.str.50 = private unnamed_addr constant [28 x i8] c"Trying harder synthesis...\0A\00", align 1
@.str.51 = private unnamed_addr constant [17 x i8] c"Final result...\0A\00", align 1

; Function Attrs: nounwind uwtable
define internal i32 @Vec_IntSize(ptr noundef %0) #0 {
  %2 = alloca ptr, align 8
  store ptr %0, ptr %2, align 8
  %3 = load ptr, ptr %2, align 8
  %4 = getelementptr inbounds %struct.Vec_Int_t_, ptr %3, i32 0, i32 1
  %5 = load i32, ptr %4, align 4
  ret i32 %5
}

; Function Attrs: nounwind uwtable
define internal i32 @Gia_ManAndNum(ptr noundef %0) #0 {
  %2 = alloca ptr, align 8
  store ptr %0, ptr %2, align 8
  %3 = load ptr, ptr %2, align 8
  %4 = getelementptr inbounds %struct.Gia_Man_t_, ptr %3, i32 0, i32 4
  %5 = load i32, ptr %4, align 8
  %6 = load ptr, ptr %2, align 8
  %7 = getelementptr inbounds %struct.Gia_Man_t_, ptr %6, i32 0, i32 11
  %8 = load ptr, ptr %7, align 8
  %9 = call i32 @Vec_IntSize(ptr noundef %8)
  %10 = sub nsw i32 %5, %9
  %11 = load ptr, ptr %2, align 8
  %12 = getelementptr inbounds %struct.Gia_Man_t_, ptr %11, i32 0, i32 12
  %13 = load ptr, ptr %12, align 8
  %14 = call i32 @Vec_IntSize(ptr noundef %13)
  %15 = sub nsw i32 %10, %14
  %16 = sub nsw i32 %15, 1
  ret i32 %16
}

; Function Attrs: nounwind uwtable
define void @Gia_ManPerformFlow3(i32 noundef %0, i32 noundef %1, i32 noundef %2, i32 noundef %3, i32 noundef %4, i32 noundef %5, i32 noundef %6) #0 {
  %8 = alloca i32, align 4
  %9 = alloca i32, align 4
  %10 = alloca i32, align 4
  %11 = alloca i32, align 4
  %12 = alloca i32, align 4
  %13 = alloca i32, align 4
  %14 = alloca i32, align 4
  %15 = alloca [200 x i8], align 16
  %16 = alloca [200 x i8], align 16
  %17 = alloca [200 x i8], align 16
  store i32 %0, ptr %8, align 4
  store i32 %1, ptr %9, align 4
  store i32 %2, ptr %10, align 4
  store i32 %3, ptr %11, align 4
  store i32 %4, ptr %12, align 4
  store i32 %5, ptr %13, align 4
  store i32 %6, ptr %14, align 4
  %18 = load i32, ptr %13, align 4
  %19 = icmp ne i32 %18, 0
  br i1 %19, label %20, label %25

20:                                               ; preds = %7
  %21 = getelementptr inbounds [200 x i8], ptr %15, i64 0, i64 0
  %22 = load i32, ptr %9, align 4
  %23 = load i32, ptr %9, align 4
  %24 = call i32 (ptr, ptr, ...) @sprintf(ptr noundef %21, ptr noundef @.str.37, i32 noundef %22, i32 noundef %23) #9
  br label %32

25:                                               ; preds = %7
  %26 = getelementptr inbounds [200 x i8], ptr %15, i64 0, i64 0
  %27 = load i32, ptr %9, align 4
  %28 = load i32, ptr %8, align 4
  %29 = load i32, ptr %9, align 4
  %30 = load i32, ptr %8, align 4
  %31 = call i32 (ptr, ptr, ...) @sprintf(ptr noundef %26, ptr noundef @.str.38, i32 noundef %27, i32 noundef %28, i32 noundef %29, i32 noundef %30) #9
  br label %32

32:                                               ; preds = %25, %20
  %33 = load i32, ptr %13, align 4
  %34 = icmp ne i32 %33, 0
  br i1 %34, label %35, label %45

35:                                               ; preds = %32
  %36 = getelementptr inbounds [200 x i8], ptr %16, i64 0, i64 0
  %37 = call i32 (...) @Abc_NtkRecIsRunning3()
  %38 = icmp ne i32 %37, 0
  %39 = select i1 %38, ptr @.str.40, ptr @.str.41
  %40 = load i32, ptr %9, align 4
  %41 = load i32, ptr %12, align 4
  %42 = icmp ne i32 %41, 0
  %43 = select i1 %42, ptr @.str.42, ptr @.str.4
  %44 = call i32 (ptr, ptr, ...) @sprintf(ptr noundef %36, ptr noundef @.str.39, ptr noundef %39, i32 noundef %40, ptr noundef %43) #9
  br label %56

45:                                               ; preds = %32
  %46 = getelementptr inbounds [200 x i8], ptr %16, i64 0, i64 0
  %47 = call i32 (...) @Abc_NtkRecIsRunning3()
  %48 = icmp ne i32 %47, 0
  %49 = select i1 %48, ptr @.str.40, ptr @.str.41
  %50 = load i32, ptr %9, align 4
  %51 = load i32, ptr %8, align 4
  %52 = load i32, ptr %12, align 4
  %53 = icmp ne i32 %52, 0
  %54 = select i1 %53, ptr @.str.42, ptr @.str.4
  %55 = call i32 (ptr, ptr, ...) @sprintf(ptr noundef %46, ptr noundef @.str.43, ptr noundef %49, i32 noundef %50, i32 noundef %51, ptr noundef %54) #9
  br label %56

56:                                               ; preds = %45, %35
  %57 = load i32, ptr %13, align 4
  %58 = icmp ne i32 %57, 0
  br i1 %58, label %59, label %69

59:                                               ; preds = %56
  %60 = getelementptr inbounds [200 x i8], ptr %17, i64 0, i64 0
  %61 = call i32 (...) @Abc_NtkRecIsRunning3()
  %62 = icmp ne i32 %61, 0
  %63 = select i1 %62, ptr @.str.40, ptr @.str.41
  %64 = load i32, ptr %9, align 4
  %65 = load i32, ptr %12, align 4
  %66 = icmp ne i32 %65, 0
  %67 = select i1 %66, ptr @.str.42, ptr @.str.4
  %68 = call i32 (ptr, ptr, ...) @sprintf(ptr noundef %60, ptr noundef @.str.44, ptr noundef %63, i32 noundef %64, ptr noundef %67) #9
  br label %80

69:                                               ; preds = %56
  %70 = getelementptr inbounds [200 x i8], ptr %17, i64 0, i64 0
  %71 = call i32 (...) @Abc_NtkRecIsRunning3()
  %72 = icmp ne i32 %71, 0
  %73 = select i1 %72, ptr @.str.40, ptr @.str.41
  %74 = load i32, ptr %9, align 4
  %75 = load i32, ptr %8, align 4
  %76 = load i32, ptr %12, align 4
  %77 = icmp ne i32 %76, 0
  %78 = select i1 %77, ptr @.str.42, ptr @.str.4
  %79 = call i32 (ptr, ptr, ...) @sprintf(ptr noundef %70, ptr noundef @.str.45, ptr noundef %73, i32 noundef %74, i32 noundef %75, ptr noundef %78) #9
  br label %80

80:                                               ; preds = %69, %59
  %81 = load i32, ptr %14, align 4
  %82 = icmp ne i32 %81, 0
  br i1 %82, label %83, label %88

83:                                               ; preds = %80
  %84 = call i32 (...) @Abc_NtkRecIsRunning3()
  %85 = icmp ne i32 %84, 0
  %86 = select i1 %85, ptr @.str.47, ptr @.str.48
  %87 = call i32 (ptr, ...) @printf(ptr noundef @.str.46, ptr noundef %86)
  br label %88

88:                                               ; preds = %83, %80
  %89 = call ptr (...) @Abc_FrameGetGlobalFrame()
  %90 = getelementptr inbounds [200 x i8], ptr %15, i64 0, i64 0
  %91 = call i32 @Cmd_CommandExecute(ptr noundef %89, ptr noundef %90)
  %92 = load i32, ptr %14, align 4
  %93 = icmp ne i32 %92, 0
  br i1 %93, label %94, label %97

94:                                               ; preds = %88
  %95 = call ptr (...) @Abc_FrameGetGlobalFrame()
  %96 = call i32 @Cmd_CommandExecute(ptr noundef %95, ptr noundef @.str.7)
  br label %97

97:                                               ; preds = %94, %88
  %98 = call ptr (...) @Abc_FrameGetGlobalFrame()
  %99 = call ptr @Abc_FrameReadGia(ptr noundef %98)
  %100 = call i32 @Gia_ManAndNum(ptr noundef %99)
  %101 = icmp slt i32 %100, 200000
  br i1 %101, label %102, label %117

102:                                              ; preds = %97
  %103 = load i32, ptr %14, align 4
  %104 = icmp ne i32 %103, 0
  br i1 %104, label %105, label %107

105:                                              ; preds = %102
  %106 = call i32 (ptr, ...) @printf(ptr noundef @.str.49)
  br label %107

107:                                              ; preds = %105, %102
  %108 = call ptr (...) @Abc_FrameGetGlobalFrame()
  %109 = getelementptr inbounds [200 x i8], ptr %16, i64 0, i64 0
  %110 = call i32 @Cmd_CommandExecute(ptr noundef %108, ptr noundef %109)
  %111 = load i32, ptr %14, align 4
  %112 = icmp ne i32 %111, 0
  br i1 %112, label %113, label %116

113:                                              ; preds = %107
  %114 = call ptr (...) @Abc_FrameGetGlobalFrame()
  %115 = call i32 @Cmd_CommandExecute(ptr noundef %114, ptr noundef @.str.7)
  br label %116

116:                                              ; preds = %113, %107
  br label %117

117:                                              ; preds = %116, %97
  %118 = call ptr (...) @Abc_FrameGetGlobalFrame()
  %119 = call ptr @Abc_FrameReadGia(ptr noundef %118)
  %120 = call i32 @Gia_ManAndNum(ptr noundef %119)
  %121 = icmp slt i32 %120, 10000
  br i1 %121, label %122, label %137

122:                                              ; preds = %117
  %123 = load i32, ptr %14, align 4
  %124 = icmp ne i32 %123, 0
  br i1 %124, label %125, label %127

125:                                              ; preds = %122
  %126 = call i32 (ptr, ...) @printf(ptr noundef @.str.50)
  br label %127

127:                                              ; preds = %125, %122
  %128 = call ptr (...) @Abc_FrameGetGlobalFrame()
  %129 = getelementptr inbounds [200 x i8], ptr %17, i64 0, i64 0
  %130 = call i32 @Cmd_CommandExecute(ptr noundef %128, ptr noundef %129)
  %131 = load i32, ptr %14, align 4
  %132 = icmp ne i32 %131, 0
  br i1 %132, label %133, label %136

133:                                              ; preds = %127
  %134 = call ptr (...) @Abc_FrameGetGlobalFrame()
  %135 = call i32 @Cmd_CommandExecute(ptr noundef %134, ptr noundef @.str.7)
  br label %136

136:                                              ; preds = %133, %127
  br label %137

137:                                              ; preds = %136, %117
  %138 = load i32, ptr %14, align 4
  %139 = icmp ne i32 %138, 0
  br i1 %139, label %140, label %142

140:                                              ; preds = %137
  %141 = call i32 (ptr, ...) @printf(ptr noundef @.str.51)
  br label %142

142:                                              ; preds = %140, %137
  %143 = load i32, ptr %14, align 4
  %144 = icmp ne i32 %143, 0
  br i1 %144, label %145, label %148

145:                                              ; preds = %142
  %146 = call ptr (...) @Abc_FrameGetGlobalFrame()
  %147 = call i32 @Cmd_CommandExecute(ptr noundef %146, ptr noundef @.str.7)
  br label %148

148:                                              ; preds = %145, %142
  ret void
}