; Function Attrs: nounwind uwtable
define void @Gia_ManPerformFlow3(i32 noundef %0, i32 noundef %1, i32 noundef %2, i32 noundef %3, i32 noundef %4, i32 noundef %5, i32 noundef %6) local_unnamed_addr #0 {
  %8 = alloca [200 x i8], align 16
  %9 = alloca [200 x i8], align 16
  %10 = alloca [200 x i8], align 16
  %.not = icmp eq i32 %5, 0
  %.not28 = icmp eq i32 %4, 0
  %11 = select i1 %.not28, ptr @.str.4, ptr @.str.42
  br i1 %.not, label %20, label %12

12:                                               ; preds = %7
  %13 = call i32 (ptr, ptr, ...) @sprintf(ptr noundef nonnull dereferenceable(1) %8, ptr noundef nonnull dereferenceable(1) @.str.37, i32 noundef %1, i32 noundef %1) #15
  %14 = tail call i32 (...) @Abc_NtkRecIsRunning3() #15
  %.not29 = icmp eq i32 %14, 0
  %15 = select i1 %.not29, ptr @.str.41, ptr @.str.40
  %16 = call i32 (ptr, ptr, ...) @sprintf(ptr noundef nonnull dereferenceable(1) %9, ptr noundef nonnull dereferenceable(1) @.str.39, ptr noundef nonnull %15, i32 noundef %1, ptr noundef nonnull %11) #15
  %17 = tail call i32 (...) @Abc_NtkRecIsRunning3() #15
  %.not33 = icmp eq i32 %17, 0
  %18 = select i1 %.not33, ptr @.str.41, ptr @.str.40
  %19 = call i32 (ptr, ptr, ...) @sprintf(ptr noundef nonnull dereferenceable(1) %10, ptr noundef nonnull dereferenceable(1) @.str.44, ptr noundef nonnull %18, i32 noundef %1, ptr noundef nonnull %11) #15
  br label %28

20:                                               ; preds = %7
  %21 = call i32 (ptr, ptr, ...) @sprintf(ptr noundef nonnull dereferenceable(1) %8, ptr noundef nonnull dereferenceable(1) @.str.38, i32 noundef %1, i32 noundef %0, i32 noundef %1, i32 noundef %0) #15
  %22 = tail call i32 (...) @Abc_NtkRecIsRunning3() #15
  %.not27 = icmp eq i32 %22, 0
  %23 = select i1 %.not27, ptr @.str.41, ptr @.str.40
  %24 = call i32 (ptr, ptr, ...) @sprintf(ptr noundef nonnull dereferenceable(1) %9, ptr noundef nonnull dereferenceable(1) @.str.43, ptr noundef nonnull %23, i32 noundef %1, i32 noundef %0, ptr noundef nonnull %11) #15
  %25 = tail call i32 (...) @Abc_NtkRecIsRunning3() #15
  %.not31 = icmp eq i32 %25, 0
  %26 = select i1 %.not31, ptr @.str.41, ptr @.str.40
  %27 = call i32 (ptr, ptr, ...) @sprintf(ptr noundef nonnull dereferenceable(1) %10, ptr noundef nonnull dereferenceable(1) @.str.45, ptr noundef nonnull %26, i32 noundef %1, i32 noundef %0, ptr noundef nonnull %11) #15
  br label %28

28:                                               ; preds = %20, %12
  %.not35 = icmp eq i32 %6, 0
  br i1 %.not35, label %.critedge, label %29

29:                                               ; preds = %28
  %30 = tail call i32 (...) @Abc_NtkRecIsRunning3() #15
  %.not36 = icmp eq i32 %30, 0
  %31 = select i1 %.not36, ptr @.str.48, ptr @.str.47
  %32 = tail call i32 (ptr, ...) @printf(ptr noundef nonnull dereferenceable(1) @.str.46, ptr noundef nonnull %31)
  %33 = tail call ptr (...) @Abc_FrameGetGlobalFrame() #15
  %34 = call i32 @Cmd_CommandExecute(ptr noundef %33, ptr noundef nonnull %8) #15
  %35 = call ptr (...) @Abc_FrameGetGlobalFrame() #15
  %36 = call i32 @Cmd_CommandExecute(ptr noundef %35, ptr noundef nonnull @.str.7) #15
  br label %39

.critedge:                                        ; preds = %28
  %37 = tail call ptr (...) @Abc_FrameGetGlobalFrame() #15
  %38 = call i32 @Cmd_CommandExecute(ptr noundef %37, ptr noundef nonnull %8) #15
  br label %39

39:                                               ; preds = %.critedge, %29
  %40 = call ptr (...) @Abc_FrameGetGlobalFrame() #15
  %41 = call ptr @Abc_FrameReadGia(ptr noundef %40) #15
  %42 = getelementptr inbounds nuw i8, ptr %41, i64 24
  %43 = load i32, ptr %42, align 8
  %44 = getelementptr inbounds nuw i8, ptr %41, i64 64
  %45 = load ptr, ptr %44, align 8
  %46 = getelementptr i8, ptr %45, i64 4
  %.val.i = load i32, ptr %46, align 4
  %47 = getelementptr inbounds nuw i8, ptr %41, i64 72
  %48 = load ptr, ptr %47, align 8
  %49 = getelementptr i8, ptr %48, i64 4
  %.val3.i = load i32, ptr %49, align 4
  %50 = sub i32 %.val.i, %43
  %51 = add i32 %50, %.val3.i
  %52 = icmp sgt i32 %51, -200001
  br i1 %52, label %53, label %59

53:                                               ; preds = %39
  br i1 %.not35, label %.sink.split, label %54

54:                                               ; preds = %53
  %puts = call i32 @puts(ptr nonnull dereferenceable(1) @str.8)
  %55 = call ptr (...) @Abc_FrameGetGlobalFrame() #15
  %56 = call i32 @Cmd_CommandExecute(ptr noundef %55, ptr noundef nonnull %9) #15
  br label %.sink.split

.sink.split:                                      ; preds = %53, %54
  %.sink52 = phi ptr [ @.str.7, %54 ], [ %9, %53 ]
  %57 = call ptr (...) @Abc_FrameGetGlobalFrame() #15
  %58 = call i32 @Cmd_CommandExecute(ptr noundef %57, ptr noundef nonnull %.sink52) #15
  br label %59

59:                                               ; preds = %.sink.split, %39
  %60 = call ptr (...) @Abc_FrameGetGlobalFrame() #15
  %61 = call ptr @Abc_FrameReadGia(ptr noundef %60) #15
  %62 = getelementptr inbounds nuw i8, ptr %61, i64 24
  %63 = load i32, ptr %62, align 8
  %64 = getelementptr inbounds nuw i8, ptr %61, i64 64
  %65 = load ptr, ptr %64, align 8
  %66 = getelementptr i8, ptr %65, i64 4
  %.val.i46 = load i32, ptr %66, align 4
  %67 = getelementptr inbounds nuw i8, ptr %61, i64 72
  %68 = load ptr, ptr %67, align 8
  %69 = getelementptr i8, ptr %68, i64 4
  %.val3.i47 = load i32, ptr %69, align 4
  %70 = sub i32 %.val.i46, %63
  %71 = add i32 %70, %.val3.i47
  %72 = icmp sgt i32 %71, -10001
  br i1 %72, label %73, label %78

73:                                               ; preds = %59
  br i1 %.not35, label %.critedge45.sink.split, label %.thread50

.thread50:                                        ; preds = %73
  %puts37 = call i32 @puts(ptr nonnull dereferenceable(1) @str.9)
  %74 = call ptr (...) @Abc_FrameGetGlobalFrame() #15
  %75 = call i32 @Cmd_CommandExecute(ptr noundef %74, ptr noundef nonnull %10) #15
  %76 = call ptr (...) @Abc_FrameGetGlobalFrame() #15
  %77 = call i32 @Cmd_CommandExecute(ptr noundef %76, ptr noundef nonnull @.str.7) #15
  br label %.critedge44

78:                                               ; preds = %59
  br i1 %.not35, label %.critedge45, label %.critedge44

.critedge44:                                      ; preds = %.thread50, %78
  %puts38 = call i32 @puts(ptr nonnull dereferenceable(1) @str.10)
  br label %.critedge45.sink.split

.critedge45.sink.split:                           ; preds = %73, %.critedge44
  %.sink53 = phi ptr [ @.str.7, %.critedge44 ], [ %10, %73 ]
  %79 = call ptr (...) @Abc_FrameGetGlobalFrame() #15
  %80 = call i32 @Cmd_CommandExecute(ptr noundef %79, ptr noundef nonnull %.sink53) #15
  br label %.critedge45

.critedge45:                                      ; preds = %.critedge45.sink.split, %78
  ret void
}